target datalayout = "e-m:e-p270:32:32-p271:32:32-p272:64:64-i64:64-i128:128-f80:128-n8:16:32:64-S128"
target triple = "x86_64-pc-linux-gnu"

%struct.sockaddr = type { i16, [14 x i8] }
%struct.in_addr = type { i32 }
%struct.in6_addr = type { %union.anon }
%union.anon = type { [4 x i32] }
%struct.sockaddr_in6 = type { i16, i16, i32, %struct.in6_addr, i32 }
%struct.sockaddr_in = type { i16, i16, %struct.in_addr, [8 x i8] }

@evutil_sockaddr_is_loopback_.LOOPBACK_S6 = internal constant [16 x i8] c"\00\00\00\00\00\00\00\00\00\00\00\00\00\00\00\01", align 16

; Function Attrs: inlinehint nounwind uwtable
define internal i32 @__bswap_32(i32 noundef %0) #5 {
  %2 = alloca i32, align 4
  store i32 %0, ptr %2, align 4
  %3 = load i32, ptr %2, align 4
  %4 = and i32 %3, -16777216
  %5 = lshr i32 %4, 24
  %6 = load i32, ptr %2, align 4
  %7 = and i32 %6, 16711680
  %8 = lshr i32 %7, 8
  %9 = or i32 %5, %8
  %10 = load i32, ptr %2, align 4
  %11 = and i32 %10, 65280
  %12 = shl i32 %11, 8
  %13 = or i32 %9, %12
  %14 = load i32, ptr %2, align 4
  %15 = and i32 %14, 255
  %16 = shl i32 %15, 24
  %17 = or i32 %13, %16
  ret i32 %17
}

; Function Attrs: nounwind uwtable
define i32 @evutil_sockaddr_is_loopback_(ptr noundef %0) #0 {
  %2 = alloca i32, align 4
  %3 = alloca ptr, align 8
  %4 = alloca ptr, align 8
  %5 = alloca ptr, align 8
  store ptr %0, ptr %3, align 8
  %6 = load ptr, ptr %3, align 8
  %7 = getelementptr inbounds nuw %struct.sockaddr, ptr %6, i32 0, i32 0
  %8 = load i16, ptr %7, align 2
  %9 = zext i16 %8 to i32
  %10 = icmp eq i32 %9, 2
  br i1 %10, label %11, label %21

11:                                               ; preds = %1
  call void @llvm.lifetime.start.p0(i64 8, ptr %4) #11
  %12 = load ptr, ptr %3, align 8
  store ptr %12, ptr %4, align 8
  %13 = load ptr, ptr %4, align 8
  %14 = getelementptr inbounds nuw %struct.sockaddr_in, ptr %13, i32 0, i32 2
  %15 = getelementptr inbounds nuw %struct.in_addr, ptr %14, i32 0, i32 0
  %16 = load i32, ptr %15, align 4
  %17 = call i32 @__bswap_32(i32 noundef %16)
  %18 = and i32 %17, -16777216
  %19 = icmp eq i32 %18, 2130706432
  %20 = zext i1 %19 to i32
  store i32 %20, ptr %2, align 4
  call void @llvm.lifetime.end.p0(i64 8, ptr %4) #11
  br label %39

21:                                               ; preds = %1
  %22 = load ptr, ptr %3, align 8
  %23 = getelementptr inbounds nuw %struct.sockaddr, ptr %22, i32 0, i32 0
  %24 = load i16, ptr %23, align 2
  %25 = zext i16 %24 to i32
  %26 = icmp eq i32 %25, 10
  br i1 %26, label %27, label %37

27:                                               ; preds = %21
  call void @llvm.lifetime.start.p0(i64 8, ptr %5) #11
  %28 = load ptr, ptr %3, align 8
  store ptr %28, ptr %5, align 8
  %29 = load ptr, ptr %5, align 8
  %30 = getelementptr inbounds nuw %struct.sockaddr_in6, ptr %29, i32 0, i32 3
  %31 = getelementptr inbounds nuw %struct.in6_addr, ptr %30, i32 0, i32 0
  %32 = getelementptr inbounds [16 x i8], ptr %31, i64 0, i64 0
  %33 = call i32 @memcmp(ptr noundef %32, ptr noundef @evutil_sockaddr_is_loopback_.LOOPBACK_S6, i64 noundef 16) #13
  %34 = icmp ne i32 %33, 0
  %35 = xor i1 %34, true
  %36 = zext i1 %35 to i32
  store i32 %36, ptr %2, align 4
  call void @llvm.lifetime.end.p0(i64 8, ptr %5) #11
  br label %39

37:                                               ; preds = %21
  br label %38

38:                                               ; preds = %37
  store i32 0, ptr %2, align 4
  br label %39

39:                                               ; preds = %38, %27, %11
  %40 = load i32, ptr %2, align 4
  ret i32 %40
}