; Function Attrs: mustprogress nofree nounwind willreturn memory(argmem: read) uwtable
define range(i32 0, 2) i32 @evutil_sockaddr_is_loopback_(ptr noundef readonly captures(none) %0) local_unnamed_addr #11 {
  %2 = load i16, ptr %0, align 2
  switch i16 %2, label %9 [
    i16 2, label %3
    i16 10, label %7
  ]

3:                                                ; preds = %1
  %4 = getelementptr inbounds nuw i8, ptr %0, i64 4
  %5 = load i32, ptr %4, align 4
  %.mask = and i32 %5, 255
  %6 = icmp eq i32 %.mask, 127
  br label %9

7:                                                ; preds = %1
  %8 = getelementptr inbounds nuw i8, ptr %0, i64 8
  %bcmp = tail call i32 @bcmp(ptr noundef nonnull dereferenceable(16) %8, ptr noundef nonnull dereferenceable(16) @evutil_sockaddr_is_loopback_.LOOPBACK_S6, i64 16)
  %.not = icmp eq i32 %bcmp, 0
  br label %9

9:                                                ; preds = %1, %7, %3
  %.0.shrunk = phi i1 [ %6, %3 ], [ %.not, %7 ], [ false, %1 ]
  %.0 = zext i1 %.0.shrunk to i32
  ret i32 %.0
}